; Function Attrs: mustprogress uwtable
define noundef i32 @_ZN6colvar4calcEv(ptr noundef nonnull align 8 dereferenceable(4624) %0) local_unnamed_addr #2 align 2 {
  %2 = getelementptr inbounds i8, ptr %0, i64 368
  %3 = load ptr, ptr %2, align 8
  %4 = getelementptr inbounds i8, ptr %3, i64 1
  %5 = load i8, ptr %4, align 1
  %6 = trunc i8 %5 to i1
  br i1 %6, label %7, label %13

7:                                                ; preds = %1
  %8 = tail call noundef i32 @_ZN6colvar16update_cvc_flagsEv(ptr noundef nonnull align 8 dereferenceable(4624) %0), !range !129
  %.not = icmp eq i32 %8, 0
  br i1 %.not, label %9, label %13

9:                                                ; preds = %7
  %10 = tail call noundef i32 @_ZN6colvar9calc_cvcsEim(ptr noundef nonnull align 8 dereferenceable(4624) %0, i32 noundef 0, i64 noundef 0), !range !130
  %.not13 = icmp eq i32 %10, 0
  br i1 %.not13, label %11, label %13

11:                                               ; preds = %9
  %12 = tail call noundef i32 @_ZN6colvar16collect_cvc_dataEv(ptr noundef nonnull align 8 dereferenceable(4624) %0)
  br label %13

13:                                               ; preds = %1, %11, %9, %7
  %.09 = phi i32 [ 1, %7 ], [ %10, %9 ], [ %12, %11 ], [ 0, %1 ]
  ret i32 %.09
}